target datalayout = "e-m:e-p270:32:32-p271:32:32-p272:64:64-i64:64-i128:128-f80:128-n8:16:32:64-S128"
target triple = "x86_64-pc-linux-gnu"

%class.LibRaw = type { ptr, %struct.libraw_data_t, ptr, %struct.libraw_internal_data_t, [2048 x %struct.decode], ptr, ptr, [10 x %struct.tiff_ifd_t], %class.libraw_memmgr, %struct.libraw_callbacks_t, { i64, i64 }, { i64, i64 }, { i64, i64 }, ptr, ptr, ptr, i64, ptr, ptr, ptr, ptr }
%struct.libraw_data_t = type { ptr, %struct.libraw_image_sizes_t, %struct.libraw_iparams_t, %struct.libraw_lensinfo_t, %struct.libraw_makernotes_t, %struct.libraw_shootinginfo_t, %struct.libraw_output_params_t, %struct.libraw_raw_unpack_params_t, i32, i32, %struct.libraw_colordata_t, %struct.libraw_imgother_t, %struct.libraw_thumbnail_t, %struct.libraw_thumbnail_list_t, %struct.libraw_rawdata_t, ptr }
%struct.libraw_image_sizes_t = type { i16, i16, i16, i16, i16, i16, i16, i16, i32, double, i32, [8 x [4 x i32]], i16, [2 x %struct.libraw_raw_inset_crop_t] }
%struct.libraw_raw_inset_crop_t = type { i16, i16, i16, i16 }
%struct.libraw_iparams_t = type { [4 x i8], [64 x i8], [64 x i8], [64 x i8], [64 x i8], [64 x i8], i32, i32, i32, i32, i32, i32, [6 x [6 x i8]], [6 x [6 x i8]], [5 x i8], i32, ptr }
%struct.libraw_lensinfo_t = type { float, float, float, float, float, [128 x i8], [128 x i8], [128 x i8], [128 x i8], i16, %struct.libraw_nikonlens_t, %struct.libraw_dnglens_t, %struct.libraw_makernotes_lens_t }
%struct.libraw_nikonlens_t = type { float, i8, i8, i8, i8 }
%struct.libraw_dnglens_t = type { float, float, float, float }
%struct.libraw_makernotes_lens_t = type { i64, [128 x i8], i16, i16, i64, i16, i16, [64 x i8], i16, [16 x i8], [16 x i8], float, float, float, float, float, float, float, float, float, float, float, float, float, float, float, i64, [128 x i8], i64, [128 x i8], i64, [128 x i8], i16, float }
%struct.libraw_makernotes_t = type { %struct.libraw_canon_makernotes_t, %struct.libraw_nikon_makernotes_t, %struct.libraw_hasselblad_makernotes_t, %struct.libraw_fuji_info_t, %struct.libraw_olympus_makernotes_t, %struct.libraw_sony_info_t, %struct.libraw_kodak_makernotes_t, %struct.libraw_panasonic_makernotes_t, %struct.libraw_pentax_makernotes_t, %struct.libraw_p1_makernotes_t, %struct.libraw_ricoh_makernotes_t, %struct.libraw_samsung_makernotes_t, %struct.libraw_metadata_common_t }
%struct.libraw_canon_makernotes_t = type { i32, i32, i32, i32, [4 x i32], i32, [4 x i32], i16, i16, i8, i16, i16, i16, i16, i16, i16, i16, i16, i16, i16, i16, i16, i16, i32, float, i16, i16, i16, i32, i16, i32, i32, i16, i32, %struct.libraw_area_t, %struct.libraw_area_t, %struct.libraw_area_t, %struct.libraw_area_t, %struct.libraw_area_t, [2 x i16] }
%struct.libraw_area_t = type { i16, i16, i16, i16 }
%struct.libraw_nikon_makernotes_t = type { double, i16, i16, [7 x i8], i8, i8, [13 x i8], [20 x i8], [4 x i8], [4 x i8], [4 x i8], i8, i8, i8, i8, i8, [2 x i8], i8, i8, i8, i8, i8, [4 x i8], [4 x i8], i8, i16, i32, i32, i32, i32, [4 x double], i8, i8, i8, i32, i32, i32, i8, [4 x i16], i16, %struct.libraw_sensor_highspeed_crop_t, i16, i16, i16, i32, [20 x i8], [20 x i8], i32, i16, double, double, double }
%struct.libraw_sensor_highspeed_crop_t = type { i16, i16, i16, i16 }
%struct.libraw_hasselblad_makernotes_t = type { i32, double, [8 x i8], [64 x i8], [64 x i8], i32, i32, i32, i32, [32 x i8], [64 x i8], i32, [2 x i32], [2 x i32], [4 x [3 x double]] }
%struct.libraw_fuji_info_t = type { float, i16, i16, i16, i16, i16, i16, i16, i16, [33 x i8], [33 x i8], float, i16, i16, [2 x i16], i16, i32, i32, i16, [3 x i16], i16, i16, i16, i16, i16, i32, i16, [13 x i8], [5 x i8], [5 x i8], i32, i16, i32, i16, [9 x i16], [32 x i32], i32, i32, i32, [2 x float], i32 }
%struct.libraw_olympus_makernotes_t = type { [6 x i8], i16, [2 x i32], [5 x i16], i16, [2 x i16], i16, i16, [64 x i32], [5 x double], i16, i8, [3 x i16], [3 x i32], i16, i16, i16, i16, double, [4 x i16], [2 x i32], i8, i32, i16, i16 }
%struct.libraw_sony_info_t = type { i16, i8, i8, i32, i8, i32, i8, i8, i16, [2 x i16], i8, i8, i16, [10 x i8], i8, i8, [4 x i16], i16, i8, i8, i8, i16, i32, i16, [2 x i16], i16, i16, i16, i16, i16, i16, i16, i32, float, i16, i32, i32, i16, [20 x i8], i32, i16, i32, i8, i8, i16, i16, i16, i16, i16, i16, i16, i16, i16, i32, i16, [16 x i8], float }
%struct.libraw_kodak_makernotes_t = type { i16, i16, i16, i16, i16, i16, [3 x [3 x float]], [3 x [3 x float]], [3 x [3 x float]], [3 x [3 x float]], [3 x [3 x float]], [3 x [3 x float]], i16, i16, i16, i16, float, float }
%struct.libraw_panasonic_makernotes_t = type { i16, i16, [8 x float], i32, float, [3 x i32], i16, i16, i32, i32 }
%struct.libraw_pentax_makernotes_t = type { [4 x i8], [2 x i16], [2 x i16], i16, i32, i32, i16, i16, i8, i8, i16 }
%struct.libraw_p1_makernotes_t = type { [64 x i8], [64 x i8], [256 x i8], [64 x i8] }
%struct.libraw_ricoh_makernotes_t = type { i16, [2 x i32], [2 x i32], i16, i32, i32, i32, i32, i16, i16, i16, i16, i16, i16, double, double }
%struct.libraw_samsung_makernotes_t = type { [4 x i32], [4 x i32], [2 x i32], [11 x i32], double, i32, [32 x i8] }
%struct.libraw_metadata_common_t = type { float, float, float, float, float, float, float, float, float, float, float, float, float, float, float, float, i16, [128 x i8], float, [4 x %struct.libraw_afinfo_item_t], i32 }
%struct.libraw_afinfo_item_t = type { i32, i16, i32, i32, ptr }
%struct.libraw_shootinginfo_t = type { i16, i16, i16, i16, i16, i16, i16, [64 x i8], [64 x i8] }
%struct.libraw_output_params_t = type { [4 x i32], [4 x i32], [4 x double], [6 x double], [4 x float], float, float, i32, i32, i32, i32, i32, i32, i32, ptr, ptr, ptr, ptr, i32, i32, i32, i32, i32, i32, [4 x i32], i32, i32, float, float, i32, i32, i32, i32, i32, i32, i32, i32, float, float, i32, i32 }
%struct.libraw_raw_unpack_params_t = type { i32, i32, i32, i32, i32, i32, i32, float, [5 x i8], ptr }
%struct.libraw_colordata_t = type { [65536 x i16], [4104 x i32], i32, i32, i32, [4 x i64], float, float, [8 x [8 x i16]], [4 x float], [4 x float], [3 x [4 x float]], [3 x [4 x float]], [3 x [4 x float]], [4 x [3 x float]], %struct.ph1_t, float, float, [64 x i8], [64 x i8], [64 x i8], [64 x i8], [17 x i8], [64 x i8], ptr, i32, [8 x i32], [2 x %struct.libraw_dng_color_t], %struct.libraw_dng_levels_t, [256 x [4 x i32]], [64 x [5 x float]], i32, [2 x %struct.libraw_P1_color_t], i32, i32 }
%struct.ph1_t = type { i32, i32, i32, i32, i32, i32, i32, i32, float }
%struct.libraw_dng_color_t = type { i32, i16, [4 x [4 x float]], [4 x [3 x float]], [3 x [4 x float]] }
%struct.libraw_dng_levels_t = type { i32, [4104 x i32], i32, [4104 x float], float, [4 x i32], [4 x i16], [4 x float], i32, [4 x float], [4 x float], float, float }
%struct.libraw_P1_color_t = type { [9 x float] }
%struct.libraw_imgother_t = type { float, float, float, float, i64, i32, [32 x i32], %struct.libraw_gps_info_t, [512 x i8], [64 x i8], [4 x float] }
%struct.libraw_gps_info_t = type { [3 x float], [3 x float], [3 x float], float, i8, i8, i8, i8, i8 }
%struct.libraw_thumbnail_t = type { i32, i16, i16, i32, i32, ptr }
%struct.libraw_thumbnail_list_t = type { i32, [8 x %struct.libraw_thumbnail_item_t] }
%struct.libraw_thumbnail_item_t = type { i32, i16, i16, i16, i32, i32, i64 }
%struct.libraw_rawdata_t = type { ptr, ptr, ptr, ptr, ptr, ptr, ptr, ptr, ptr, %struct.libraw_iparams_t, %struct.libraw_image_sizes_t, %struct.libraw_internal_output_params_t, %struct.libraw_colordata_t }
%struct.libraw_internal_output_params_t = type { i32, i32, i32, i16, i16 }
%struct.libraw_internal_data_t = type { %struct.internal_data_t, %struct.libraw_internal_output_params_t, %struct.output_data_t, %struct.identify_data_t, %struct.unpacker_data_t }
%struct.internal_data_t = type { ptr, ptr, i32, ptr, i64, i64, [4 x i32] }
%struct.output_data_t = type { ptr, ptr }
%struct.identify_data_t = type { i32, i64, i64, i32, i32, i32 }
%struct.unpacker_data_t = type { i16, [4 x i16], [3 x i16], i32, i64, i64, i64, i64, i64, i64, i32, i32, i32, i32, i32, i32, i32, i32, i32, i32, i32, i32, i32, i32, i32, i32, i32, i64, i32, i32, i32, i32, i32, i32, i32, i32, i32, %struct.pana8_tags_t, [16 x %struct.crx_data_header_t], i32, i32, i16, i16, i32, i32, i32, i32, i32, i32, i32, [20 x i32], i16 }
%struct.pana8_tags_t = type { [6 x i32], [6 x i16], i16, [4 x i16], [17 x i16], [17 x i16], [17 x i16], i16, i16, [5 x i64], [5 x i16], [5 x i32], [5 x i16], [5 x i16] }
%struct.crx_data_header_t = type { i32, i32, i32, i32, i32, i32, i32, i32, i32, i32, i32, i32, i32, i32, i32, i64, i32, ptr, i32, i32, i32, ptr, i32, ptr }
%struct.decode = type { [2 x ptr], i32 }
%struct.tiff_ifd_t = type { i32, i32, i32, i32, i32, i32, i32, i32, i32, i32, i32, i32, i32, i32, i32, ptr, i32, ptr, i32, i32, i32, i32, i32, i32, i32, float, i64, i64, i32, [2 x %struct.libraw_dng_color_t], %struct.libraw_dng_levels_t, i32 }
%class.libraw_memmgr = type <{ ptr, i32, [4 x i8] }>
%struct.libraw_callbacks_t = type { ptr, ptr, ptr, ptr, ptr, ptr, ptr, ptr, ptr, ptr, ptr, ptr, ptr, ptr, ptr, ptr, ptr }

@_ZZN6LibRaw20kodak_dc120_load_rawEvE3mul = internal constant [4 x i32] [i32 162, i32 192, i32 187, i32 92], align 16
@_ZZN6LibRaw20kodak_dc120_load_rawEvE3add = internal constant [4 x i32] [i32 0, i32 636, i32 424, i32 212], align 16

; Function Attrs: mustprogress uwtable
define void @_ZN6LibRaw20kodak_dc120_load_rawEv(ptr noundef nonnull align 8 dereferenceable(767680) %0) #0 align 2 {
  %2 = alloca ptr, align 8
  %3 = alloca [848 x i8], align 16
  %4 = alloca i32, align 4
  %5 = alloca i32, align 4
  %6 = alloca i32, align 4
  store ptr %0, ptr %2, align 8, !tbaa !6
  %7 = load ptr, ptr %2, align 8
  call void @llvm.lifetime.start.p0(i64 848, ptr %3) #13
  call void @llvm.lifetime.start.p0(i64 4, ptr %4) #13
  call void @llvm.lifetime.start.p0(i64 4, ptr %5) #13
  call void @llvm.lifetime.start.p0(i64 4, ptr %6) #13
  store i32 0, ptr %4, align 4, !tbaa !80
  br label %8

8:                                                ; preds = %78, %1
  %9 = load i32, ptr %4, align 4, !tbaa !80
  %10 = getelementptr inbounds nuw %class.LibRaw, ptr %7, i32 0, i32 1
  %11 = getelementptr inbounds nuw %struct.libraw_data_t, ptr %10, i32 0, i32 1
  %12 = getelementptr inbounds nuw %struct.libraw_image_sizes_t, ptr %11, i32 0, i32 2
  %13 = load i16, ptr %12, align 4, !tbaa !74
  %14 = zext i16 %13 to i32
  %15 = icmp slt i32 %9, %14
  br i1 %15, label %16, label %81

16:                                               ; preds = %8
  call void @_ZN6LibRaw11checkCancelEv(ptr noundef nonnull align 8 dereferenceable(767680) %7)
  %17 = getelementptr inbounds nuw %class.LibRaw, ptr %7, i32 0, i32 3
  %18 = getelementptr inbounds nuw %struct.libraw_internal_data_t, ptr %17, i32 0, i32 0
  %19 = getelementptr inbounds nuw %struct.internal_data_t, ptr %18, i32 0, i32 0
  %20 = load ptr, ptr %19, align 8, !tbaa !147
  %21 = getelementptr inbounds [848 x i8], ptr %3, i64 0, i64 0
  %22 = load ptr, ptr %20, align 8, !tbaa !148
  %23 = getelementptr inbounds ptr, ptr %22, i64 3
  %24 = load ptr, ptr %23, align 8
  %25 = call noundef i32 %24(ptr noundef nonnull align 8 dereferenceable(8) %20, ptr noundef %21, i64 noundef 1, i64 noundef 848)
  %26 = icmp slt i32 %25, 848
  br i1 %26, label %27, label %28

27:                                               ; preds = %16
  call void @_ZN6LibRaw6derrorEv(ptr noundef nonnull align 8 dereferenceable(767680) %7)
  br label %28

28:                                               ; preds = %27, %16
  %29 = load i32, ptr %4, align 4, !tbaa !80
  %30 = load i32, ptr %4, align 4, !tbaa !80
  %31 = and i32 %30, 3
  %32 = sext i32 %31 to i64
  %33 = getelementptr inbounds [4 x i32], ptr @_ZZN6LibRaw20kodak_dc120_load_rawEvE3mul, i64 0, i64 %32
  %34 = load i32, ptr %33, align 4, !tbaa !80
  %35 = mul nsw i32 %29, %34
  %36 = load i32, ptr %4, align 4, !tbaa !80
  %37 = and i32 %36, 3
  %38 = sext i32 %37 to i64
  %39 = getelementptr inbounds [4 x i32], ptr @_ZZN6LibRaw20kodak_dc120_load_rawEvE3add, i64 0, i64 %38
  %40 = load i32, ptr %39, align 4, !tbaa !80
  %41 = add nsw i32 %35, %40
  store i32 %41, ptr %5, align 4, !tbaa !80
  store i32 0, ptr %6, align 4, !tbaa !80
  br label %42

42:                                               ; preds = %74, %28
  %43 = load i32, ptr %6, align 4, !tbaa !80
  %44 = getelementptr inbounds nuw %class.LibRaw, ptr %7, i32 0, i32 1
  %45 = getelementptr inbounds nuw %struct.libraw_data_t, ptr %44, i32 0, i32 1
  %46 = getelementptr inbounds nuw %struct.libraw_image_sizes_t, ptr %45, i32 0, i32 3
  %47 = load i16, ptr %46, align 2, !tbaa !11
  %48 = zext i16 %47 to i32
  %49 = icmp slt i32 %43, %48
  br i1 %49, label %50, label %77

50:                                               ; preds = %42
  %51 = load i32, ptr %6, align 4, !tbaa !80
  %52 = load i32, ptr %5, align 4, !tbaa !80
  %53 = add nsw i32 %51, %52
  %54 = srem i32 %53, 848
  %55 = sext i32 %54 to i64
  %56 = getelementptr inbounds [848 x i8], ptr %3, i64 0, i64 %55
  %57 = load i8, ptr %56, align 1, !tbaa !84
  %58 = zext i8 %57 to i16
  %59 = getelementptr inbounds nuw %class.LibRaw, ptr %7, i32 0, i32 1
  %60 = getelementptr inbounds nuw %struct.libraw_data_t, ptr %59, i32 0, i32 14
  %61 = getelementptr inbounds nuw %struct.libraw_rawdata_t, ptr %60, i32 0, i32 1
  %62 = load ptr, ptr %61, align 8, !tbaa !103
  %63 = load i32, ptr %4, align 4, !tbaa !80
  %64 = getelementptr inbounds nuw %class.LibRaw, ptr %7, i32 0, i32 1
  %65 = getelementptr inbounds nuw %struct.libraw_data_t, ptr %64, i32 0, i32 1
  %66 = getelementptr inbounds nuw %struct.libraw_image_sizes_t, ptr %65, i32 0, i32 1
  %67 = load i16, ptr %66, align 2, !tbaa !73
  %68 = zext i16 %67 to i32
  %69 = mul nsw i32 %63, %68
  %70 = load i32, ptr %6, align 4, !tbaa !80
  %71 = add nsw i32 %69, %70
  %72 = sext i32 %71 to i64
  %73 = getelementptr inbounds i16, ptr %62, i64 %72
  store i16 %58, ptr %73, align 2, !tbaa !78
  br label %74

74:                                               ; preds = %50
  %75 = load i32, ptr %6, align 4, !tbaa !80
  %76 = add nsw i32 %75, 1
  store i32 %76, ptr %6, align 4, !tbaa !80
  br label %42, !llvm.loop !165

77:                                               ; preds = %42
  br label %78

78:                                               ; preds = %77
  %79 = load i32, ptr %4, align 4, !tbaa !80
  %80 = add nsw i32 %79, 1
  store i32 %80, ptr %4, align 4, !tbaa !80
  br label %8, !llvm.loop !166

81:                                               ; preds = %8
  %82 = getelementptr inbounds nuw %class.LibRaw, ptr %7, i32 0, i32 1
  %83 = getelementptr inbounds nuw %struct.libraw_data_t, ptr %82, i32 0, i32 10
  %84 = getelementptr inbounds nuw %struct.libraw_colordata_t, ptr %83, i32 0, i32 4
  store i32 255, ptr %84, align 8, !tbaa !112
  call void @llvm.lifetime.end.p0(i64 4, ptr %6) #13
  call void @llvm.lifetime.end.p0(i64 4, ptr %5) #13
  call void @llvm.lifetime.end.p0(i64 4, ptr %4) #13
  call void @llvm.lifetime.end.p0(i64 848, ptr %3) #13
  ret void
}