; Function Attrs: mustprogress uwtable
define void @_ZN6LibRaw20kodak_dc120_load_rawEv(ptr noundef nonnull align 8 dereferenceable(767680) %0) local_unnamed_addr #0 align 2 {
  %2 = alloca [848 x i8], align 16
  call void @llvm.lifetime.start.p0(i64 848, ptr nonnull %2) #12
  %3 = getelementptr inbounds nuw i8, ptr %0, i64 20
  %4 = load i16, ptr %3, align 4, !tbaa !72
  %.not = icmp eq i16 %4, 0
  br i1 %.not, label %._crit_edge16, label %.lr.ph15

.lr.ph15:                                         ; preds = %1
  %5 = getelementptr inbounds nuw i8, ptr %0, i64 381416
  %6 = getelementptr inbounds nuw i8, ptr %0, i64 22
  %7 = getelementptr inbounds nuw i8, ptr %0, i64 193648
  %8 = getelementptr inbounds nuw i8, ptr %0, i64 18
  br label %9

9:                                                ; preds = %.lr.ph15, %._crit_edge
  %.01113 = phi i32 [ 0, %.lr.ph15 ], [ %45, %._crit_edge ]
  call void @_ZN6LibRaw11checkCancelEv(ptr noundef nonnull align 8 dereferenceable(767680) %0)
  %10 = load ptr, ptr %5, align 8, !tbaa !133
  %11 = load ptr, ptr %10, align 8, !tbaa !134
  %12 = getelementptr inbounds nuw i8, ptr %11, i64 24
  %13 = load ptr, ptr %12, align 8
  %14 = call noundef i32 %13(ptr noundef nonnull align 8 dereferenceable(8) %10, ptr noundef nonnull %2, i64 noundef 1, i64 noundef 848)
  %15 = icmp slt i32 %14, 848
  br i1 %15, label %16, label %17

16:                                               ; preds = %9
  call void @_ZN6LibRaw6derrorEv(ptr noundef nonnull align 8 dereferenceable(767680) %0)
  br label %17

17:                                               ; preds = %16, %9
  %18 = and i32 %.01113, 3
  %19 = zext nneg i32 %18 to i64
  %20 = getelementptr inbounds nuw [4 x i32], ptr @_ZZN6LibRaw20kodak_dc120_load_rawEvE3mul, i64 0, i64 %19
  %21 = load i32, ptr %20, align 4, !tbaa !142
  %22 = mul nsw i32 %21, %.01113
  %23 = getelementptr inbounds nuw [4 x i32], ptr @_ZZN6LibRaw20kodak_dc120_load_rawEvE3add, i64 0, i64 %19
  %24 = load i32, ptr %23, align 4, !tbaa !142
  %25 = add nsw i32 %22, %24
  %26 = load i16, ptr %6, align 2, !tbaa !6
  %.not17 = icmp eq i16 %26, 0
  br i1 %.not17, label %._crit_edge, label %.lr.ph

.lr.ph:                                           ; preds = %17
  %27 = load ptr, ptr %7, align 8, !tbaa !86
  br label %28

28:                                               ; preds = %.lr.ph, %28
  %.012 = phi i32 [ 0, %.lr.ph ], [ %41, %28 ]
  %29 = add nsw i32 %25, %.012
  %30 = srem i32 %29, 848
  %31 = sext i32 %30 to i64
  %32 = getelementptr inbounds [848 x i8], ptr %2, i64 0, i64 %31
  %33 = load i8, ptr %32, align 1, !tbaa !79
  %34 = zext i8 %33 to i16
  %35 = load i16, ptr %8, align 2, !tbaa !71
  %36 = zext i16 %35 to i32
  %37 = mul nuw nsw i32 %.01113, %36
  %38 = add nuw nsw i32 %37, %.012
  %39 = zext nneg i32 %38 to i64
  %40 = getelementptr inbounds nuw i16, ptr %27, i64 %39
  store i16 %34, ptr %40, align 2, !tbaa !75
  %41 = add nuw nsw i32 %.012, 1
  %42 = load i16, ptr %6, align 2, !tbaa !6
  %43 = zext i16 %42 to i32
  %44 = icmp samesign ult i32 %41, %43
  br i1 %44, label %28, label %._crit_edge, !llvm.loop !143

._crit_edge:                                      ; preds = %28, %17
  %45 = add nuw nsw i32 %.01113, 1
  %46 = load i16, ptr %3, align 4, !tbaa !72
  %47 = zext i16 %46 to i32
  %48 = icmp samesign ult i32 %45, %47
  br i1 %48, label %9, label %._crit_edge16, !llvm.loop !144

._crit_edge16:                                    ; preds = %._crit_edge, %1
  %49 = getelementptr inbounds nuw i8, ptr %0, i64 153000
  store i32 255, ptr %49, align 8, !tbaa !107
  call void @llvm.lifetime.end.p0(i64 848, ptr nonnull %2) #12
  ret void
}